target datalayout = "e-m:e-p270:32:32-p271:32:32-p272:64:64-i64:64-i128:128-f80:128-n8:16:32:64-S128"
target triple = "x86_64-pc-linux-gnu"

%struct.b2ArenaEntryArray = type { ptr, i32, i32 }
%struct.b2ArenaAllocator = type { ptr, i32, i32, i32, i32, %struct.b2ArenaEntryArray }

; Function Attrs: nounwind uwtable
define hidden void @b2GrowArena(ptr noundef %0) #0 {
  %2 = alloca ptr, align 8
  store ptr %0, ptr %2, align 8, !tbaa !23
  %3 = load ptr, ptr %2, align 8, !tbaa !23
  %4 = getelementptr inbounds nuw %struct.b2ArenaAllocator, ptr %3, i32 0, i32 4
  %5 = load i32, ptr %4, align 4, !tbaa !19
  %6 = load ptr, ptr %2, align 8, !tbaa !23
  %7 = getelementptr inbounds nuw %struct.b2ArenaAllocator, ptr %6, i32 0, i32 1
  %8 = load i32, ptr %7, align 8, !tbaa !14
  %9 = icmp sgt i32 %5, %8
  br i1 %9, label %10, label %33

10:                                               ; preds = %1
  %11 = load ptr, ptr %2, align 8, !tbaa !23
  %12 = getelementptr inbounds nuw %struct.b2ArenaAllocator, ptr %11, i32 0, i32 0
  %13 = load ptr, ptr %12, align 8, !tbaa !17
  %14 = load ptr, ptr %2, align 8, !tbaa !23
  %15 = getelementptr inbounds nuw %struct.b2ArenaAllocator, ptr %14, i32 0, i32 1
  %16 = load i32, ptr %15, align 8, !tbaa !14
  call void @b2Free(ptr noundef %13, i32 noundef %16)
  %17 = load ptr, ptr %2, align 8, !tbaa !23
  %18 = getelementptr inbounds nuw %struct.b2ArenaAllocator, ptr %17, i32 0, i32 4
  %19 = load i32, ptr %18, align 4, !tbaa !19
  %20 = load ptr, ptr %2, align 8, !tbaa !23
  %21 = getelementptr inbounds nuw %struct.b2ArenaAllocator, ptr %20, i32 0, i32 4
  %22 = load i32, ptr %21, align 4, !tbaa !19
  %23 = sdiv i32 %22, 2
  %24 = add nsw i32 %19, %23
  %25 = load ptr, ptr %2, align 8, !tbaa !23
  %26 = getelementptr inbounds nuw %struct.b2ArenaAllocator, ptr %25, i32 0, i32 1
  store i32 %24, ptr %26, align 8, !tbaa !14
  %27 = load ptr, ptr %2, align 8, !tbaa !23
  %28 = getelementptr inbounds nuw %struct.b2ArenaAllocator, ptr %27, i32 0, i32 1
  %29 = load i32, ptr %28, align 8, !tbaa !14
  %30 = call ptr @b2Alloc(i32 noundef %29)
  %31 = load ptr, ptr %2, align 8, !tbaa !23
  %32 = getelementptr inbounds nuw %struct.b2ArenaAllocator, ptr %31, i32 0, i32 0
  store ptr %30, ptr %32, align 8, !tbaa !17
  br label %33

33:                                               ; preds = %10, %1
  ret void
}