; Function Attrs: nounwind uwtable
define hidden void @b2GrowArena(ptr noundef captures(none) %0) local_unnamed_addr #0 {
  %2 = getelementptr inbounds nuw i8, ptr %0, i64 20
  %3 = load i32, ptr %2, align 4, !tbaa !16
  %4 = getelementptr inbounds nuw i8, ptr %0, i64 8
  %5 = load i32, ptr %4, align 8, !tbaa !11
  %6 = icmp sgt i32 %3, %5
  br i1 %6, label %7, label %13

7:                                                ; preds = %1
  %8 = load ptr, ptr %0, align 8, !tbaa !14
  tail call void @b2Free(ptr noundef %8, i32 noundef %5) #4
  %9 = load i32, ptr %2, align 4, !tbaa !16
  %10 = sdiv i32 %9, 2
  %11 = add nsw i32 %10, %9
  store i32 %11, ptr %4, align 8, !tbaa !11
  %12 = tail call ptr @b2Alloc(i32 noundef %11) #4
  store ptr %12, ptr %0, align 8, !tbaa !14
  br label %13

13:                                               ; preds = %7, %1
  ret void
}